; Function Attrs: mustprogress uwtable
define noundef range(i32 -2147483647, -2147483648) i32 @_ZN3net26Spdy3PriorityToHttp2WeightEh(i8 noundef zeroext %0) local_unnamed_addr #0 personality ptr @__gxx_personality_v0 {
  %2 = alloca %"class.logging::LogMessage", align 8
  %3 = zext i8 %0 to i32
  %4 = icmp ugt i8 %0, 7
  br i1 %4, label %5, label %_ZN3net18ClampSpdy3PriorityEh.exit

5:                                                ; preds = %1
  %6 = tail call noundef zeroext i1 @_ZN7logging22ShouldCreateLogMessageEi(i32 noundef 2)
  br i1 %6, label %7, label %_ZN3net18ClampSpdy3PriorityEh.exit

7:                                                ; preds = %5
  call void @llvm.lifetime.start.p0(i64 408, ptr nonnull %2) #22
  call void @_ZN7logging10LogMessageC1EPKcii(ptr noundef nonnull align 8 dereferenceable(404) %2, ptr noundef nonnull @.str, i32 noundef 18, i32 noundef 2)
  %8 = getelementptr inbounds nuw i8, ptr %2, i64 8
  %9 = invoke noundef nonnull align 8 dereferenceable(8) ptr @_ZSt16__ostream_insertIcSt11char_traitsIcEERSt13basic_ostreamIT_T0_ES6_PKS3_l(ptr noundef nonnull align 8 dereferenceable(8) %8, ptr noundef nonnull @.str.1, i64 noundef 18)
          to label %_ZStlsISt11char_traitsIcEERSt13basic_ostreamIcT_ES5_PKc.exit.i unwind label %11

_ZStlsISt11char_traitsIcEERSt13basic_ostreamIcT_ES5_PKc.exit.i: ; preds = %7
  %10 = invoke noundef nonnull align 8 dereferenceable(8) ptr @_ZNSolsEi(ptr noundef nonnull align 8 dereferenceable(8) %8, i32 noundef %3)
          to label %.critedge.i unwind label %11

.critedge.i:                                      ; preds = %_ZStlsISt11char_traitsIcEERSt13basic_ostreamIcT_ES5_PKc.exit.i
  call void @_ZN7logging10LogMessageD1Ev(ptr noundef nonnull align 8 dereferenceable(404) %2) #22
  call void @llvm.lifetime.end.p0(i64 408, ptr nonnull %2) #22
  br label %_ZN3net18ClampSpdy3PriorityEh.exit

11:                                               ; preds = %_ZStlsISt11char_traitsIcEERSt13basic_ostreamIcT_ES5_PKc.exit.i, %7
  %12 = landingpad { ptr, i32 }
          cleanup
  call void @_ZN7logging10LogMessageD1Ev(ptr noundef nonnull align 8 dereferenceable(404) %2) #22
  call void @llvm.lifetime.end.p0(i64 408, ptr nonnull %2) #22
  resume { ptr, i32 } %12

_ZN3net18ClampSpdy3PriorityEh.exit:               ; preds = %1, %5, %.critedge.i
  %.020.i = phi i8 [ %0, %1 ], [ 7, %5 ], [ 7, %.critedge.i ]
  %13 = uitofp nneg i8 %.020.i to float
  %14 = fsub float 7.000000e+00, %13
  %15 = fmul float %14, 0x4042475060000000
  %16 = fptosi float %15 to i32
  %17 = add nsw i32 %16, 1
  ret i32 %17
}